target datalayout = "e-m:e-p270:32:32-p271:32:32-p272:64:64-i64:64-i128:128-f80:128-n8:16:32:64-S128"
target triple = "x86_64-unknown-linux-gnu"

%"class.arrow::io::FileInterface.base" = type <{ ptr, %"class.std::enable_shared_from_this", i32 }>
%"class.std::enable_shared_from_this" = type { %"class.std::weak_ptr" }
%"class.std::weak_ptr" = type { %"class.std::__weak_ptr" }
%"class.std::__weak_ptr" = type { ptr, %"class.std::__weak_count" }
%"class.std::__weak_count" = type { ptr }
%"class.arrow::io::FileInterface" = type <{ ptr, %"class.std::enable_shared_from_this", i32, [4 x i8] }>
%"class.arrow::io::StdinStream" = type { %"class.arrow::io::InputStream.base", i64, %"class.arrow::io::FileInterface.base" }
%"class.arrow::io::InputStream.base" = type { %"class.arrow::io::Readable" }
%"class.arrow::io::Readable" = type { ptr }

@_ZTVN5arrow2io13FileInterfaceE = external unnamed_addr constant { [9 x ptr] }, align 8
@_ZTVN5arrow2io8ReadableE = external unnamed_addr constant { [7 x ptr] }, align 8

; Function Attrs: mustprogress nounwind uwtable
define linkonce_odr void @_ZNSt12__weak_countILN9__gnu_cxx12_Lock_policyE2EEC2Ev(ptr noundef nonnull align 8 dereferenceable(8) %this) unnamed_addr #5 comdat align 2 {
entry:
  %this.addr = alloca ptr, align 8
  store ptr %this, ptr %this.addr, align 8
  %this1 = load ptr, ptr %this.addr, align 8
  %_M_pi = getelementptr inbounds %"class.std::__weak_count", ptr %this1, i32 0, i32 0
  store ptr null, ptr %_M_pi, align 8
  ret void
}

; Function Attrs: mustprogress nounwind uwtable
define linkonce_odr void @_ZNSt10__weak_ptrIN5arrow2io13FileInterfaceELN9__gnu_cxx12_Lock_policyE2EEC2Ev(ptr noundef nonnull align 8 dereferenceable(16) %this) unnamed_addr #5 comdat align 2 {
entry:
  %this.addr = alloca ptr, align 8
  store ptr %this, ptr %this.addr, align 8
  %this1 = load ptr, ptr %this.addr, align 8
  %_M_ptr = getelementptr inbounds %"class.std::__weak_ptr", ptr %this1, i32 0, i32 0
  store ptr null, ptr %_M_ptr, align 8
  %_M_refcount = getelementptr inbounds %"class.std::__weak_ptr", ptr %this1, i32 0, i32 1
  call void @_ZNSt12__weak_countILN9__gnu_cxx12_Lock_policyE2EEC2Ev(ptr noundef nonnull align 8 dereferenceable(8) %_M_refcount) #3
  ret void
}

; Function Attrs: mustprogress nounwind uwtable
define linkonce_odr void @_ZNSt8weak_ptrIN5arrow2io13FileInterfaceEEC2Ev(ptr noundef nonnull align 8 dereferenceable(16) %this) unnamed_addr #5 comdat align 2 {
entry:
  %this.addr = alloca ptr, align 8
  store ptr %this, ptr %this.addr, align 8
  %this1 = load ptr, ptr %this.addr, align 8
  call void @_ZNSt10__weak_ptrIN5arrow2io13FileInterfaceELN9__gnu_cxx12_Lock_policyE2EEC2Ev(ptr noundef nonnull align 8 dereferenceable(16) %this1) #3
  ret void
}

; Function Attrs: mustprogress nounwind uwtable
define linkonce_odr void @_ZNSt23enable_shared_from_thisIN5arrow2io13FileInterfaceEEC2Ev(ptr noundef nonnull align 8 dereferenceable(16) %this) unnamed_addr #5 comdat align 2 {
entry:
  %this.addr = alloca ptr, align 8
  store ptr %this, ptr %this.addr, align 8
  %this1 = load ptr, ptr %this.addr, align 8
  %_M_weak_this = getelementptr inbounds %"class.std::enable_shared_from_this", ptr %this1, i32 0, i32 0
  call void @_ZNSt8weak_ptrIN5arrow2io13FileInterfaceEEC2Ev(ptr noundef nonnull align 8 dereferenceable(16) %_M_weak_this) #3
  ret void
}

; Function Attrs: mustprogress nounwind uwtable
define linkonce_odr void @_ZN5arrow2io8ReadableD2Ev(ptr noundef nonnull align 8 dereferenceable(8) %this) unnamed_addr #5 comdat align 2 {
entry:
  %this.addr = alloca ptr, align 8
  store ptr %this, ptr %this.addr, align 8
  ret void
}

; Function Attrs: mustprogress nounwind uwtable
define linkonce_odr void @_ZN5arrow2io11InputStreamD2Ev(ptr noundef nonnull align 8 dereferenceable(8) %this, ptr noundef %vtt) unnamed_addr #5 comdat align 2 {
entry:
  %this.addr = alloca ptr, align 8
  %vtt.addr = alloca ptr, align 8
  store ptr %this, ptr %this.addr, align 8
  store ptr %vtt, ptr %vtt.addr, align 8
  ret void
}

; Function Attrs: mustprogress nounwind uwtable
define linkonce_odr void @_ZN5arrow2io13FileInterface8set_modeENS0_8FileMode4typeE(ptr noundef nonnull align 8 dereferenceable(28) %this, i32 noundef %mode) #5 comdat align 2 {
entry:
  %this.addr = alloca ptr, align 8
  %mode.addr = alloca i32, align 4
  store ptr %this, ptr %this.addr, align 8
  store i32 %mode, ptr %mode.addr, align 4
  %this1 = load ptr, ptr %this.addr, align 8
  %0 = load i32, ptr %mode.addr, align 4
  %mode_ = getelementptr inbounds %"class.arrow::io::FileInterface", ptr %this1, i32 0, i32 2
  store i32 %0, ptr %mode_, align 8
  ret void
}

; Function Attrs: mustprogress nounwind uwtable
define linkonce_odr void @_ZN5arrow2io11InputStreamC2Ev(ptr noundef nonnull align 8 dereferenceable(8) %this, ptr noundef %vtt) unnamed_addr #5 comdat align 2 {
entry:
  %this.addr = alloca ptr, align 8
  %vtt.addr = alloca ptr, align 8
  store ptr %this, ptr %this.addr, align 8
  store ptr %vtt, ptr %vtt.addr, align 8
  %this1 = load ptr, ptr %this.addr, align 8
  %vtt2 = load ptr, ptr %vtt.addr, align 8
  %0 = load ptr, ptr %vtt2, align 8
  store ptr %0, ptr %this1, align 8
  %1 = getelementptr inbounds ptr, ptr %vtt2, i64 1
  %2 = load ptr, ptr %1, align 8
  %vtable = load ptr, ptr %this1, align 8
  %vbase.offset.ptr = getelementptr i8, ptr %vtable, i64 -56
  %vbase.offset = load i64, ptr %vbase.offset.ptr, align 8
  %add.ptr = getelementptr inbounds i8, ptr %this1, i64 %vbase.offset
  store ptr %2, ptr %add.ptr, align 8
  %3 = getelementptr inbounds ptr, ptr %vtt2, i64 2
  %4 = load ptr, ptr %3, align 8
  %vtable3 = load ptr, ptr %this1, align 8
  %vbase.offset.ptr4 = getelementptr i8, ptr %vtable3, i64 -64
  %vbase.offset5 = load i64, ptr %vbase.offset.ptr4, align 8
  %add.ptr6 = getelementptr inbounds i8, ptr %this1, i64 %vbase.offset5
  store ptr %4, ptr %add.ptr6, align 8
  ret void
}

; Function Attrs: mustprogress nounwind uwtable
define linkonce_odr void @_ZN5arrow2io8ReadableC2Ev(ptr noundef nonnull align 8 dereferenceable(8) %this) unnamed_addr #5 comdat align 2 {
entry:
  %this.addr = alloca ptr, align 8
  store ptr %this, ptr %this.addr, align 8
  %this1 = load ptr, ptr %this.addr, align 8
  store ptr getelementptr inbounds ({ [7 x ptr] }, ptr @_ZTVN5arrow2io8ReadableE, i32 0, i32 0, i32 2), ptr %this1, align 8
  ret void
}

; Function Attrs: mustprogress nounwind uwtable
define linkonce_odr void @_ZN5arrow2io13FileInterfaceC2Ev(ptr noundef nonnull align 8 dereferenceable(28) %this) unnamed_addr #5 comdat align 2 {
entry:
  %this.addr = alloca ptr, align 8
  store ptr %this, ptr %this.addr, align 8
  %this1 = load ptr, ptr %this.addr, align 8
  %0 = getelementptr inbounds i8, ptr %this1, i64 8
  call void @_ZNSt23enable_shared_from_thisIN5arrow2io13FileInterfaceEEC2Ev(ptr noundef nonnull align 8 dereferenceable(16) %0) #3
  store ptr getelementptr inbounds ({ [9 x ptr] }, ptr @_ZTVN5arrow2io13FileInterfaceE, i32 0, i32 0, i32 2), ptr %this1, align 8
  %mode_ = getelementptr inbounds %"class.arrow::io::FileInterface", ptr %this1, i32 0, i32 2
  store i32 0, ptr %mode_, align 8
  ret void
}

; Function Attrs: mustprogress uwtable
define void @_ZN5arrow2io11StdinStreamC1Ev(ptr noundef nonnull align 8 dereferenceable(16) %this) unnamed_addr #4 align 2 personality ptr @__gxx_personality_v0 {
entry:
  %this.addr = alloca ptr, align 8
  %exn.slot = alloca ptr, align 8
  %ehselector.slot = alloca i32, align 4
  store ptr %this, ptr %this.addr, align 8
  %this1 = load ptr, ptr %this.addr, align 8
  %0 = getelementptr inbounds i8, ptr %this1, i64 16
  call void @_ZN5arrow2io13FileInterfaceC2Ev(ptr noundef nonnull align 8 dereferenceable(28) %0)
  call void @_ZN5arrow2io8ReadableC2Ev(ptr noundef nonnull align 8 dereferenceable(8) %this1) #3
  call void @_ZN5arrow2io11InputStreamC2Ev(ptr noundef nonnull align 8 dereferenceable(8) %this1, ptr noundef getelementptr inbounds ([6 x ptr], ptr @_ZTTN5arrow2io11StdinStreamE, i64 0, i64 1)) #3
  store ptr getelementptr inbounds ({ [20 x ptr], [15 x ptr] }, ptr @_ZTVN5arrow2io11StdinStreamE, i32 0, i32 0, i32 8), ptr %this1, align 8
  %add.ptr = getelementptr inbounds i8, ptr %this1, i64 16
  store ptr getelementptr inbounds ({ [20 x ptr], [15 x ptr] }, ptr @_ZTVN5arrow2io11StdinStreamE, i32 0, i32 1, i32 8), ptr %add.ptr, align 8
  store ptr getelementptr inbounds ({ [20 x ptr], [15 x ptr] }, ptr @_ZTVN5arrow2io11StdinStreamE, i32 0, i32 0, i32 8), ptr %this1, align 8
  %pos_ = getelementptr inbounds %"class.arrow::io::StdinStream", ptr %this1, i32 0, i32 1
  store i64 0, ptr %pos_, align 8
  %vtable = load ptr, ptr %this1, align 8
  %vbase.offset.ptr = getelementptr i8, ptr %vtable, i64 -56
  %vbase.offset = load i64, ptr %vbase.offset.ptr, align 8
  %add.ptr2 = getelementptr inbounds i8, ptr %this1, i64 %vbase.offset
  invoke void @_ZN5arrow2io13FileInterface8set_modeENS0_8FileMode4typeE(ptr noundef nonnull align 8 dereferenceable(28) %add.ptr2, i32 noundef 0)
          to label %invoke.cont unwind label %lpad

invoke.cont:                                      ; preds = %entry
  ret void

lpad:                                             ; preds = %entry
  %1 = landingpad { ptr, i32 }
          cleanup
  %2 = extractvalue { ptr, i32 } %1, 0
  store ptr %2, ptr %exn.slot, align 8
  %3 = extractvalue { ptr, i32 } %1, 1
  store i32 %3, ptr %ehselector.slot, align 4
  call void @_ZN5arrow2io11InputStreamD2Ev(ptr noundef nonnull align 8 dereferenceable(8) %this1, ptr noundef getelementptr inbounds ([6 x ptr], ptr @_ZTTN5arrow2io11StdinStreamE, i64 0, i64 1)) #3
  call void @_ZN5arrow2io8ReadableD2Ev(ptr noundef nonnull align 8 dereferenceable(8) %this1) #3
  %4 = getelementptr inbounds i8, ptr %this1, i64 16
  call void @_ZN5arrow2io13FileInterfaceD2Ev(ptr noundef nonnull align 8 dereferenceable(28) %4) #3
  br label %eh.resume

eh.resume:                                        ; preds = %lpad
  %exn = load ptr, ptr %exn.slot, align 8
  %sel = load i32, ptr %ehselector.slot, align 4
  %lpad.val = insertvalue { ptr, i32 } poison, ptr %exn, 0
  %lpad.val3 = insertvalue { ptr, i32 } %lpad.val, i32 %sel, 1
  resume { ptr, i32 } %lpad.val3
}